target datalayout = "e-m:e-p270:32:32-p271:32:32-p272:64:64-i64:64-i128:128-f80:128-n8:16:32:64-S128"
target triple = "x86_64-pc-linux-gnu"

%struct.AVFilterContext = type { ptr, ptr, ptr, ptr, ptr, i32, ptr, ptr, i32, ptr, ptr, i32, i32, ptr, ptr, ptr, ptr, i32, ptr, i32, i32 }
%struct.BlackDetectContext = type { ptr, double, i64, i64, i64, i64, i32, double, double, i32, i32, %struct.AVRational, i32, i32, ptr }
%struct.AVRational = type { i32, i32 }

; Function Attrs: cold nounwind optsize uwtable
define internal void @uninit(ptr noundef %0) #0 {
  %2 = alloca ptr, align 8
  %3 = alloca ptr, align 8
  store ptr %0, ptr %2, align 8, !tbaa !4
  call void @llvm.lifetime.start.p0(i64 8, ptr %3) #10
  %4 = load ptr, ptr %2, align 8, !tbaa !4
  %5 = getelementptr inbounds nuw %struct.AVFilterContext, ptr %4, i32 0, i32 9
  %6 = load ptr, ptr %5, align 8, !tbaa !9
  store ptr %6, ptr %3, align 8, !tbaa !22
  %7 = load ptr, ptr %3, align 8, !tbaa !22
  %8 = getelementptr inbounds nuw %struct.BlackDetectContext, ptr %7, i32 0, i32 14
  call void @av_freep(ptr noundef %8)
  %9 = load ptr, ptr %3, align 8, !tbaa !22
  %10 = getelementptr inbounds nuw %struct.BlackDetectContext, ptr %9, i32 0, i32 6
  %11 = load i32, ptr %10, align 8, !tbaa !24
  %12 = icmp ne i32 %11, 0
  br i1 %12, label %13, label %20

13:                                               ; preds = %1
  %14 = load ptr, ptr %3, align 8, !tbaa !22
  %15 = getelementptr inbounds nuw %struct.BlackDetectContext, ptr %14, i32 0, i32 5
  %16 = load i64, ptr %15, align 8, !tbaa !30
  %17 = load ptr, ptr %3, align 8, !tbaa !22
  %18 = getelementptr inbounds nuw %struct.BlackDetectContext, ptr %17, i32 0, i32 4
  store i64 %16, ptr %18, align 8, !tbaa !31
  %19 = load ptr, ptr %2, align 8, !tbaa !4
  call void @check_black_end(ptr noundef %19)
  br label %20

20:                                               ; preds = %13, %1
  call void @llvm.lifetime.end.p0(i64 8, ptr %3) #10
  ret void
}