; Function Attrs: cold nounwind optsize uwtable
define internal void @uninit(ptr noundef readonly captures(none) %0) #0 {
  %2 = getelementptr inbounds nuw i8, ptr %0, i64 72
  %3 = load ptr, ptr %2, align 8, !tbaa !4
  %4 = getelementptr inbounds nuw i8, ptr %3, i64 96
  tail call void @av_freep(ptr noundef nonnull %4) #10
  %5 = getelementptr inbounds nuw i8, ptr %3, i64 48
  %6 = load i32, ptr %5, align 8, !tbaa !20
  %.not = icmp eq i32 %6, 0
  br i1 %.not, label %11, label %7

7:                                                ; preds = %1
  %8 = getelementptr inbounds nuw i8, ptr %3, i64 40
  %9 = load i64, ptr %8, align 8, !tbaa !26
  %10 = getelementptr inbounds nuw i8, ptr %3, i64 32
  store i64 %9, ptr %10, align 8, !tbaa !27
  %.val = load ptr, ptr %2, align 8, !tbaa !4
  tail call fastcc void @check_black_end(ptr %.val)
  br label %11

11:                                               ; preds = %7, %1
  ret void
}